; Function Attrs: nounwind uwtable
define ptr @l_Lean_ofExcept___at_Lean_Parser_addToken___spec__1(ptr noundef %0, ptr noundef %1, ptr noundef %2, ptr noundef %3) local_unnamed_addr #1 {
  %5 = ptrtoint ptr %0 to i64
  %6 = and i64 %5, 1
  %.not.i = icmp eq i64 %6, 0
  br i1 %.not.i, label %10, label %7

7:                                                ; preds = %4
  %8 = lshr i64 %5, 1
  %9 = trunc i64 %8 to i32
  br label %lean_obj_tag.exit

10:                                               ; preds = %4
  %11 = getelementptr i8, ptr %0, i64 4
  %.val.i = load i32, ptr %11, align 4
  %12 = lshr i32 %.val.i, 24
  br label %lean_obj_tag.exit

lean_obj_tag.exit:                                ; preds = %7, %10
  %.0.i = phi i32 [ %9, %7 ], [ %12, %10 ]
  %13 = icmp eq i32 %.0.i, 0
  %14 = getelementptr inbounds nuw i8, ptr %0, i64 8
  %15 = load ptr, ptr %14, align 8, !tbaa !9
  br i1 %13, label %16, label %19

16:                                               ; preds = %lean_obj_tag.exit
  %17 = tail call ptr @l_Lean_stringToMessageData(ptr noundef %15) #6
  %18 = tail call ptr @l_Lean_throwError___at_Lean_Parser_addToken___spec__2(ptr noundef %17, ptr noundef %1, ptr noundef %2, ptr noundef %3)
  br label %34

19:                                               ; preds = %lean_obj_tag.exit
  %20 = ptrtoint ptr %15 to i64
  %21 = and i64 %20, 1
  %.not = icmp eq i64 %21, 0
  br i1 %.not, label %22, label %lean_inc.exit

22:                                               ; preds = %19
  %.val.i16 = load i32, ptr %15, align 4, !tbaa !4
  %23 = icmp sgt i32 %.val.i16, 0
  br i1 %23, label %24, label %26, !prof !11

24:                                               ; preds = %22
  %25 = add nuw i32 %.val.i16, 1
  store i32 %25, ptr %15, align 4, !tbaa !4
  br label %lean_inc.exit

26:                                               ; preds = %22
  %.not.i17 = icmp eq i32 %.val.i16, 0
  br i1 %.not.i17, label %lean_inc.exit, label %27

27:                                               ; preds = %26
  tail call void @lean_inc_ref_cold(ptr noundef nonnull %15) #6
  br label %lean_inc.exit

lean_inc.exit:                                    ; preds = %27, %26, %24, %19
  tail call void @lean_inc_heartbeat() #6
  %28 = tail call noalias ptr @mi_malloc_small(i64 noundef 24) #6
  %29 = icmp eq ptr %28, null
  br i1 %29, label %30, label %lean_alloc_ctor.exit

30:                                               ; preds = %lean_inc.exit
  tail call void @lean_internal_panic_out_of_memory() #7
  unreachable

lean_alloc_ctor.exit:                             ; preds = %lean_inc.exit
  %31 = getelementptr inbounds nuw i8, ptr %28, i64 4
  store i32 1, ptr %28, align 4, !tbaa !4
  store i32 131096, ptr %31, align 4
  %32 = getelementptr inbounds nuw i8, ptr %28, i64 8
  store ptr %15, ptr %32, align 8, !tbaa !9
  %33 = getelementptr inbounds nuw i8, ptr %28, i64 16
  store ptr %3, ptr %33, align 8, !tbaa !9
  br label %34

34:                                               ; preds = %lean_alloc_ctor.exit, %16
  %.0 = phi ptr [ %18, %16 ], [ %28, %lean_alloc_ctor.exit ]
  ret ptr %.0
}